target datalayout = "e-m:e-p270:32:32-p271:32:32-p272:64:64-i64:64-i128:128-f80:128-n8:16:32:64-S128"
target triple = "x86_64-unknown-linux-gnu"

%"class.std::set.0" = type { %"class.std::_Rb_tree.1" }
%"class.std::_Rb_tree.1" = type { %"struct.std::_Rb_tree<QuantLib::Observer *, QuantLib::Observer *, std::_Identity<QuantLib::Observer *>, std::less<QuantLib::Observer *>>::_Rb_tree_impl" }
%"struct.std::_Rb_tree<QuantLib::Observer *, QuantLib::Observer *, std::_Identity<QuantLib::Observer *>, std::less<QuantLib::Observer *>>::_Rb_tree_impl" = type { [8 x i8], %"struct.std::_Rb_tree_header" }
%"struct.std::_Rb_tree_header" = type { %"struct.std::_Rb_tree_node_base", i64 }
%"struct.std::_Rb_tree_node_base" = type { i32, ptr, ptr, ptr }
%"class.std::set" = type { %"class.std::_Rb_tree" }
%"class.std::_Rb_tree" = type { %"struct.std::_Rb_tree<boost::shared_ptr<QuantLib::Observable>, boost::shared_ptr<QuantLib::Observable>, std::_Identity<boost::shared_ptr<QuantLib::Observable>>, std::less<boost::shared_ptr<QuantLib::Observable>>>::_Rb_tree_impl" }
%"struct.std::_Rb_tree<boost::shared_ptr<QuantLib::Observable>, boost::shared_ptr<QuantLib::Observable>, std::_Identity<boost::shared_ptr<QuantLib::Observable>>, std::less<boost::shared_ptr<QuantLib::Observable>>>::_Rb_tree_impl" = type { [8 x i8], %"struct.std::_Rb_tree_header" }
%"class.boost::detail::shared_count" = type { ptr }
%"class.QuantLib::Observable" = type { ptr, %"class.std::set.0" }
%"class.QuantLib::Observer" = type { ptr, %"class.std::set" }
%"class.QuantLib::DayCounter" = type { %"class.boost::shared_ptr.16" }
%"class.boost::shared_ptr.16" = type { ptr, %"class.boost::detail::shared_count" }
%"class.QuantLib::Calendar" = type { %"class.boost::shared_ptr.17" }
%"class.boost::shared_ptr.17" = type { ptr, %"class.boost::detail::shared_count" }
%"class.std::vector.49" = type { %"struct.std::_Vector_base.50" }
%"struct.std::_Vector_base.50" = type { %"struct.std::_Vector_base<boost::shared_ptr<QuantLib::CashFlow>, std::allocator<boost::shared_ptr<QuantLib::CashFlow>>>::_Vector_impl" }
%"struct.std::_Vector_base<boost::shared_ptr<QuantLib::CashFlow>, std::allocator<boost::shared_ptr<QuantLib::CashFlow>>>::_Vector_impl" = type { %"struct.std::_Vector_base<boost::shared_ptr<QuantLib::CashFlow>, std::allocator<boost::shared_ptr<QuantLib::CashFlow>>>::_Vector_impl_data" }
%"struct.std::_Vector_base<boost::shared_ptr<QuantLib::CashFlow>, std::allocator<boost::shared_ptr<QuantLib::CashFlow>>>::_Vector_impl_data" = type { ptr, ptr, ptr }
%"class.QuantLib::Date" = type { i64 }
%"class.QuantLib::LazyObject.base" = type <{ ptr, i8, i8, i8, i8 }>
%"class.std::map.18" = type { %"class.std::_Rb_tree.19" }
%"class.std::_Rb_tree.19" = type { %"struct.std::_Rb_tree<std::__cxx11::basic_string<char>, std::pair<const std::__cxx11::basic_string<char>, boost::any>, std::_Select1st<std::pair<const std::__cxx11::basic_string<char>, boost::any>>, std::less<std::__cxx11::basic_string<char>>>::_Rb_tree_impl" }
%"struct.std::_Rb_tree<std::__cxx11::basic_string<char>, std::pair<const std::__cxx11::basic_string<char>, boost::any>, std::_Select1st<std::pair<const std::__cxx11::basic_string<char>, boost::any>>, std::less<std::__cxx11::basic_string<char>>>::_Rb_tree_impl" = type { [8 x i8], %"struct.std::_Rb_tree_header" }
%"class.boost::shared_ptr.24" = type { ptr, %"class.boost::detail::shared_count" }
%"class.std::vector.30" = type { %"struct.std::_Vector_base.31" }
%"struct.std::_Vector_base.31" = type { %"struct.std::_Vector_base<QuantLib::Date, std::allocator<QuantLib::Date>>::_Vector_impl" }
%"struct.std::_Vector_base<QuantLib::Date, std::allocator<QuantLib::Date>>::_Vector_impl" = type { %"struct.std::_Vector_base<QuantLib::Date, std::allocator<QuantLib::Date>>::_Vector_impl_data" }
%"struct.std::_Vector_base<QuantLib::Date, std::allocator<QuantLib::Date>>::_Vector_impl_data" = type { ptr, ptr, ptr }
%"class.std::vector.35" = type { %"struct.std::_Vector_base.36" }
%"struct.std::_Vector_base.36" = type { %"struct.std::_Vector_base<double, std::allocator<double>>::_Vector_impl" }
%"struct.std::_Vector_base<double, std::allocator<double>>::_Vector_impl" = type { %"struct.std::_Vector_base<double, std::allocator<double>>::_Vector_impl_data" }
%"struct.std::_Vector_base<double, std::allocator<double>>::_Vector_impl_data" = type { ptr, ptr, ptr }
%"class.std::vector.44" = type { %"struct.std::_Vector_base.45" }
%"struct.std::_Vector_base.45" = type { %"struct.std::_Vector_base<boost::shared_ptr<QuantLib::Callability>, std::allocator<boost::shared_ptr<QuantLib::Callability>>>::_Vector_impl" }
%"struct.std::_Vector_base<boost::shared_ptr<QuantLib::Callability>, std::allocator<boost::shared_ptr<QuantLib::Callability>>>::_Vector_impl" = type { %"struct.std::_Vector_base<boost::shared_ptr<QuantLib::Callability>, std::allocator<boost::shared_ptr<QuantLib::Callability>>>::_Vector_impl_data" }
%"struct.std::_Vector_base<boost::shared_ptr<QuantLib::Callability>, std::allocator<boost::shared_ptr<QuantLib::Callability>>>::_Vector_impl_data" = type { ptr, ptr, ptr }
%"class.QuantLib::Bond::arguments" = type { %"class.QuantLib::PricingEngine::arguments", %"class.QuantLib::Date", %"class.std::vector.49", %"class.QuantLib::Calendar" }
%"class.QuantLib::PricingEngine::arguments" = type { ptr }
%"class.QuantLib::CallableBond::arguments" = type { %"class.QuantLib::Bond::arguments", %"class.std::vector.30", %"class.std::vector.35", double, double, %"class.QuantLib::Date", %"class.QuantLib::DayCounter", i32, %"class.std::vector.44", %"class.std::vector.35", %"class.std::vector.30", double }
%"class.QuantLib::Instrument::results" = type { %"class.QuantLib::PricingEngine::results", double, double, %"class.QuantLib::Date", %"class.std::map.18" }
%"class.QuantLib::PricingEngine::results" = type { ptr }
%"class.QuantLib::CallableBond::NPVSpreadHelper" = type { ptr, ptr }
%"class.QuantLib::Instrument" = type { %"class.QuantLib::LazyObject.base", double, double, %"class.QuantLib::Date", %"class.std::map.18", %"class.boost::shared_ptr.24", %"class.QuantLib::Observable", %"class.QuantLib::Observer" }
%"class.QuantLib::(anonymous namespace)::RestoreVal" = type { double, ptr }

@_ZTIN8QuantLib13PricingEngine9argumentsE = linkonce_odr constant { ptr, ptr } { ptr getelementptr inbounds (ptr, ptr @_ZTVN10__cxxabiv117__class_type_infoE, i64 2), ptr @_ZTSN8QuantLib13PricingEngine9argumentsE }, comdat, align 8
@_ZTIN8QuantLib12CallableBond9argumentsE = constant { ptr, ptr, ptr } { ptr getelementptr inbounds (ptr, ptr @_ZTVN10__cxxabiv120__si_class_type_infoE, i64 2), ptr @_ZTSN8QuantLib12CallableBond9argumentsE, ptr @_ZTIN8QuantLib4Bond9argumentsE }, align 8
@.str.26 = private unnamed_addr constant [8 x i8] c"px != 0\00", align 1
@.str.27 = private unnamed_addr constant [102 x i8] c"generated/home/dtcxzyw/WorkSpace/SDK/vcpkg/installed/x64-linux/include/boost/smart_ptr/shared_ptr.hpp\00", align 1
@__PRETTY_FUNCTION__._ZNK5boost10shared_ptrIN8QuantLib13PricingEngineEEptEv = private unnamed_addr constant [143 x i8] c"typename boost::detail::sp_member_access<T>::type boost::shared_ptr<QuantLib::PricingEngine>::operator->() const [T = QuantLib::PricingEngine]\00", align 1

; Function Attrs: mustprogress nounwind uwtable
define internal void @_ZN8QuantLib12_GLOBAL__N_110RestoreValIdED2Ev(ptr noundef nonnull align 8 dereferenceable(16) %this) unnamed_addr #1 align 2 {
entry:
  %this.addr = alloca ptr, align 8
  store ptr %this, ptr %this.addr, align 8, !tbaa !3
  %this1 = load ptr, ptr %this.addr, align 8
  %orig_ = getelementptr inbounds nuw %"class.QuantLib::(anonymous namespace)::RestoreVal", ptr %this1, i32 0, i32 0
  %0 = load double, ptr %orig_, align 8, !tbaa !121
  %ref_ = getelementptr inbounds nuw %"class.QuantLib::(anonymous namespace)::RestoreVal", ptr %this1, i32 0, i32 1
  %1 = load ptr, ptr %ref_, align 8, !tbaa !123
  store double %0, ptr %1, align 8, !tbaa !32
  ret void
}

; Function Attrs: mustprogress nounwind uwtable
define internal void @_ZN8QuantLib12_GLOBAL__N_110RestoreValIdEC2ERd(ptr noundef nonnull align 8 dereferenceable(16) %this, ptr noundef nonnull align 8 dereferenceable(8) %ref) unnamed_addr #1 align 2 {
entry:
  %this.addr = alloca ptr, align 8
  %ref.addr = alloca ptr, align 8
  store ptr %this, ptr %this.addr, align 8, !tbaa !3
  store ptr %ref, ptr %ref.addr, align 8, !tbaa !3
  %this1 = load ptr, ptr %this.addr, align 8
  %orig_ = getelementptr inbounds nuw %"class.QuantLib::(anonymous namespace)::RestoreVal", ptr %this1, i32 0, i32 0
  %0 = load ptr, ptr %ref.addr, align 8, !tbaa !3
  %1 = load double, ptr %0, align 8, !tbaa !32
  store double %1, ptr %orig_, align 8, !tbaa !121
  %ref_ = getelementptr inbounds nuw %"class.QuantLib::(anonymous namespace)::RestoreVal", ptr %this1, i32 0, i32 1
  %2 = load ptr, ptr %ref.addr, align 8, !tbaa !3
  store ptr %2, ptr %ref_, align 8, !tbaa !3
  ret void
}

; Function Attrs: mustprogress uwtable
define linkonce_odr noundef ptr @_ZNK5boost10shared_ptrIN8QuantLib13PricingEngineEEptEv(ptr noundef nonnull align 8 dereferenceable(16) %this) #2 comdat align 2 {
entry:
  %this.addr = alloca ptr, align 8
  store ptr %this, ptr %this.addr, align 8, !tbaa !3
  %this1 = load ptr, ptr %this.addr, align 8
  %px = getelementptr inbounds nuw %"class.boost::shared_ptr.24", ptr %this1, i32 0, i32 0
  %0 = load ptr, ptr %px, align 8, !tbaa !93
  %cmp = icmp ne ptr %0, null
  %lnot = xor i1 %cmp, true
  %lnot2 = xor i1 %lnot, true
  %conv = zext i1 %lnot2 to i64
  %expval = call i64 @llvm.expect.i64(i64 %conv, i64 1)
  %tobool = icmp ne i64 %expval, 0
  br i1 %tobool, label %cond.true, label %cond.false

cond.true:                                        ; preds = %entry
  br label %cond.end

cond.false:                                       ; preds = %entry
  call void @_ZN5boost16assertion_failedEPKcS1_S1_l(ptr noundef @.str.26, ptr noundef @__PRETTY_FUNCTION__._ZNK5boost10shared_ptrIN8QuantLib13PricingEngineEEptEv, ptr noundef @.str.27, i64 noundef 784)
  br label %cond.end

cond.end:                                         ; preds = %cond.false, %cond.true
  %px3 = getelementptr inbounds nuw %"class.boost::shared_ptr.24", ptr %this1, i32 0, i32 0
  %1 = load ptr, ptr %px3, align 8, !tbaa !93
  ret ptr %1
}

; Function Attrs: mustprogress uwtable
define noundef double @_ZNK8QuantLib12CallableBond15NPVSpreadHelperclEd(ptr noundef nonnull align 8 dereferenceable(16) %this, double noundef %x) #2 align 2 personality ptr @__gxx_personality_v0 {
entry:
  %this.addr = alloca ptr, align 8
  %x.addr = alloca double, align 8
  %args = alloca ptr, align 8
  %restorer = alloca %"class.QuantLib::(anonymous namespace)::RestoreVal", align 8
  %exn.slot = alloca ptr, align 8
  %ehselector.slot = alloca i32, align 4
  store ptr %this, ptr %this.addr, align 8, !tbaa !3
  store double %x, ptr %x.addr, align 8, !tbaa !32
  %this1 = load ptr, ptr %this.addr, align 8
  call void @llvm.lifetime.start.p0(i64 8, ptr %args) #16
  %bond_ = getelementptr inbounds nuw %"class.QuantLib::CallableBond::NPVSpreadHelper", ptr %this1, i32 0, i32 0
  %0 = load ptr, ptr %bond_, align 8, !tbaa !119
  %engine_ = getelementptr inbounds nuw %"class.QuantLib::Instrument", ptr %0, i32 0, i32 5
  %call = call noundef ptr @_ZNK5boost10shared_ptrIN8QuantLib13PricingEngineEEptEv(ptr noundef nonnull align 8 dereferenceable(16) %engine_)
  %vtable = load ptr, ptr %call, align 8, !tbaa !20
  %vfn = getelementptr inbounds ptr, ptr %vtable, i64 2
  %1 = load ptr, ptr %vfn, align 8
  %call2 = call noundef ptr %1(ptr noundef nonnull align 8 dereferenceable(56) %call)
  %2 = icmp eq ptr %call2, null
  br i1 %2, label %dynamic_cast.null, label %dynamic_cast.notnull

dynamic_cast.notnull:                             ; preds = %entry
  %3 = call ptr @__dynamic_cast(ptr %call2, ptr @_ZTIN8QuantLib13PricingEngine9argumentsE, ptr @_ZTIN8QuantLib12CallableBond9argumentsE, i64 0) #16
  br label %dynamic_cast.end

dynamic_cast.null:                                ; preds = %entry
  br label %dynamic_cast.end

dynamic_cast.end:                                 ; preds = %dynamic_cast.null, %dynamic_cast.notnull
  %4 = phi ptr [ %3, %dynamic_cast.notnull ], [ null, %dynamic_cast.null ]
  store ptr %4, ptr %args, align 8, !tbaa !3
  call void @llvm.lifetime.start.p0(i64 16, ptr %restorer) #16
  %5 = load ptr, ptr %args, align 8, !tbaa !3
  %spread = getelementptr inbounds nuw %"class.QuantLib::CallableBond::arguments", ptr %5, i32 0, i32 11
  call void @_ZN8QuantLib12_GLOBAL__N_110RestoreValIdEC2ERd(ptr noundef nonnull align 8 dereferenceable(16) %restorer, ptr noundef nonnull align 8 dereferenceable(8) %spread)
  %6 = load double, ptr %x.addr, align 8, !tbaa !32
  %7 = load ptr, ptr %args, align 8, !tbaa !3
  %spread3 = getelementptr inbounds nuw %"class.QuantLib::CallableBond::arguments", ptr %7, i32 0, i32 11
  store double %6, ptr %spread3, align 8, !tbaa !120
  %bond_4 = getelementptr inbounds nuw %"class.QuantLib::CallableBond::NPVSpreadHelper", ptr %this1, i32 0, i32 0
  %8 = load ptr, ptr %bond_4, align 8, !tbaa !119
  %engine_5 = getelementptr inbounds nuw %"class.QuantLib::Instrument", ptr %8, i32 0, i32 5
  %call6 = invoke noundef ptr @_ZNK5boost10shared_ptrIN8QuantLib13PricingEngineEEptEv(ptr noundef nonnull align 8 dereferenceable(16) %engine_5)
          to label %invoke.cont unwind label %lpad

invoke.cont:                                      ; preds = %dynamic_cast.end
  %vtable7 = load ptr, ptr %call6, align 8, !tbaa !20
  %vfn8 = getelementptr inbounds ptr, ptr %vtable7, i64 5
  %9 = load ptr, ptr %vfn8, align 8
  invoke void %9(ptr noundef nonnull align 8 dereferenceable(56) %call6)
          to label %invoke.cont9 unwind label %lpad

invoke.cont9:                                     ; preds = %invoke.cont
  %results_ = getelementptr inbounds nuw %"class.QuantLib::CallableBond::NPVSpreadHelper", ptr %this1, i32 0, i32 1
  %10 = load ptr, ptr %results_, align 8, !tbaa !117
  %value = getelementptr inbounds nuw %"class.QuantLib::Instrument::results", ptr %10, i32 0, i32 1
  %11 = load double, ptr %value, align 8, !tbaa !97
  call void @_ZN8QuantLib12_GLOBAL__N_110RestoreValIdED2Ev(ptr noundef nonnull align 8 dereferenceable(16) %restorer) #16
  call void @llvm.lifetime.end.p0(i64 16, ptr %restorer) #16
  call void @llvm.lifetime.end.p0(i64 8, ptr %args) #16
  ret double %11

lpad:                                             ; preds = %invoke.cont, %dynamic_cast.end
  %12 = landingpad { ptr, i32 }
          cleanup
  %13 = extractvalue { ptr, i32 } %12, 0
  store ptr %13, ptr %exn.slot, align 8
  %14 = extractvalue { ptr, i32 } %12, 1
  store i32 %14, ptr %ehselector.slot, align 4
  call void @_ZN8QuantLib12_GLOBAL__N_110RestoreValIdED2Ev(ptr noundef nonnull align 8 dereferenceable(16) %restorer) #16
  call void @llvm.lifetime.end.p0(i64 16, ptr %restorer) #16
  call void @llvm.lifetime.end.p0(i64 8, ptr %args) #16
  br label %eh.resume

eh.resume:                                        ; preds = %lpad
  %exn = load ptr, ptr %exn.slot, align 8
  %sel = load i32, ptr %ehselector.slot, align 4
  %lpad.val = insertvalue { ptr, i32 } poison, ptr %exn, 0
  %lpad.val10 = insertvalue { ptr, i32 } %lpad.val, i32 %sel, 1
  resume { ptr, i32 } %lpad.val10
}