; Function Attrs: mustprogress uwtable
define noundef double @_ZNK8QuantLib12CallableBond15NPVSpreadHelperclEd(ptr nocapture noundef nonnull readonly align 8 dereferenceable(16) %this, double noundef %x) local_unnamed_addr #8 align 2 personality ptr @__gxx_personality_v0 {
entry:
  %0 = load ptr, ptr %this, align 8, !tbaa !157
  %engine_ = getelementptr inbounds nuw i8, ptr %0, i64 88
  %1 = load ptr, ptr %engine_, align 8, !tbaa !120
  %cmp.not.i = icmp eq ptr %1, null
  br i1 %cmp.not.i, label %cond.false.i, label %_ZNK5boost10shared_ptrIN8QuantLib13PricingEngineEEptEv.exit, !prof !50

cond.false.i:                                     ; preds = %entry
  tail call void @_ZN5boost16assertion_failedEPKcS1_S1_l(ptr noundef nonnull @.str.26, ptr noundef nonnull @__PRETTY_FUNCTION__._ZNK5boost10shared_ptrIN8QuantLib13PricingEngineEEptEv, ptr noundef nonnull @.str.27, i64 noundef 784)
  %.pre.i = load ptr, ptr %engine_, align 8, !tbaa !120
  br label %_ZNK5boost10shared_ptrIN8QuantLib13PricingEngineEEptEv.exit

_ZNK5boost10shared_ptrIN8QuantLib13PricingEngineEEptEv.exit: ; preds = %entry, %cond.false.i
  %2 = phi ptr [ %1, %entry ], [ %.pre.i, %cond.false.i ]
  %vtable = load ptr, ptr %2, align 8, !tbaa !33
  %vfn = getelementptr inbounds i8, ptr %vtable, i64 16
  %3 = load ptr, ptr %vfn, align 8
  %call2 = tail call noundef ptr %3(ptr noundef nonnull align 8 dereferenceable(56) %2)
  %4 = icmp ne ptr %call2, null
  tail call void @llvm.assume(i1 %4)
  %5 = tail call ptr @__dynamic_cast(ptr nonnull %call2, ptr nonnull @_ZTIN8QuantLib13PricingEngine9argumentsE, ptr nonnull @_ZTIN8QuantLib12CallableBond9argumentsE, i64 0) #28
  %spread = getelementptr inbounds nuw i8, ptr %5, i64 224
  %6 = load double, ptr %spread, align 8, !tbaa !114
  store double %x, ptr %spread, align 8, !tbaa !158
  %7 = load ptr, ptr %this, align 8, !tbaa !157
  %engine_5 = getelementptr inbounds nuw i8, ptr %7, i64 88
  %8 = load ptr, ptr %engine_5, align 8, !tbaa !120
  %cmp.not.i5 = icmp eq ptr %8, null
  br i1 %cmp.not.i5, label %cond.false.i6, label %invoke.cont, !prof !50

cond.false.i6:                                    ; preds = %_ZNK5boost10shared_ptrIN8QuantLib13PricingEngineEEptEv.exit
  invoke void @_ZN5boost16assertion_failedEPKcS1_S1_l(ptr noundef nonnull @.str.26, ptr noundef nonnull @__PRETTY_FUNCTION__._ZNK5boost10shared_ptrIN8QuantLib13PricingEngineEEptEv, ptr noundef nonnull @.str.27, i64 noundef 784)
          to label %.noexc unwind label %lpad

.noexc:                                           ; preds = %cond.false.i6
  %.pre.i7 = load ptr, ptr %engine_5, align 8, !tbaa !120
  br label %invoke.cont

invoke.cont:                                      ; preds = %.noexc, %_ZNK5boost10shared_ptrIN8QuantLib13PricingEngineEEptEv.exit
  %9 = phi ptr [ %8, %_ZNK5boost10shared_ptrIN8QuantLib13PricingEngineEEptEv.exit ], [ %.pre.i7, %.noexc ]
  %vtable7 = load ptr, ptr %9, align 8, !tbaa !33
  %vfn8 = getelementptr inbounds i8, ptr %vtable7, i64 40
  %10 = load ptr, ptr %vfn8, align 8
  invoke void %10(ptr noundef nonnull align 8 dereferenceable(56) %9)
          to label %invoke.cont9 unwind label %lpad

invoke.cont9:                                     ; preds = %invoke.cont
  %results_ = getelementptr inbounds nuw i8, ptr %this, i64 8
  %11 = load ptr, ptr %results_, align 8, !tbaa !155
  %value = getelementptr inbounds nuw i8, ptr %11, i64 8
  %12 = load double, ptr %value, align 8, !tbaa !159
  store double %6, ptr %spread, align 8, !tbaa !114
  ret double %12

lpad:                                             ; preds = %cond.false.i6, %invoke.cont
  %13 = landingpad { ptr, i32 }
          cleanup
  store double %6, ptr %spread, align 8, !tbaa !114
  resume { ptr, i32 } %13
}